target datalayout = "e-m:e-p270:32:32-p271:32:32-p272:64:64-i64:64-i128:128-f80:128-n8:16:32:64-S128"
target triple = "x86_64-pc-linux-gnu"

%"class.std::__cxx11::basic_string" = type { %"struct.std::__cxx11::basic_string<char>::_Alloc_hider", i64, %union.anon }
%"struct.std::__cxx11::basic_string<char>::_Alloc_hider" = type { ptr }
%union.anon = type { i64, [8 x i8] }
%"class.std::shared_ptr.0" = type { %"class.std::__shared_ptr.1" }
%"class.std::__shared_ptr.1" = type { ptr, %"class.std::__shared_count" }
%"class.std::__shared_count" = type { ptr }
%"class.open_spiel::battleship::BattleshipState" = type { %"class.open_spiel::State.base", %"class.std::shared_ptr", %"class.std::vector.3" }
%"class.open_spiel::State.base" = type <{ ptr, %"class.std::shared_ptr.0", i32, i32, %"class.std::vector", i32 }>
%"class.std::vector" = type { %"struct.std::_Vector_base" }
%"struct.std::_Vector_base" = type { %"struct.std::_Vector_base<open_spiel::State::PlayerAction, std::allocator<open_spiel::State::PlayerAction>>::_Vector_impl" }
%"struct.std::_Vector_base<open_spiel::State::PlayerAction, std::allocator<open_spiel::State::PlayerAction>>::_Vector_impl" = type { %"struct.std::_Vector_base<open_spiel::State::PlayerAction, std::allocator<open_spiel::State::PlayerAction>>::_Vector_impl_data" }
%"struct.std::_Vector_base<open_spiel::State::PlayerAction, std::allocator<open_spiel::State::PlayerAction>>::_Vector_impl_data" = type { ptr, ptr, ptr }
%"class.std::shared_ptr" = type { %"class.std::__shared_ptr" }
%"class.std::__shared_ptr" = type { ptr, %"class.std::__shared_count" }
%"class.std::vector.3" = type { %"struct.std::_Vector_base.4" }
%"struct.std::_Vector_base.4" = type { %"struct.std::_Vector_base<open_spiel::battleship::GameMove, std::allocator<open_spiel::battleship::GameMove>>::_Vector_impl" }
%"struct.std::_Vector_base<open_spiel::battleship::GameMove, std::allocator<open_spiel::battleship::GameMove>>::_Vector_impl" = type { %"struct.std::_Vector_base<open_spiel::battleship::GameMove, std::allocator<open_spiel::battleship::GameMove>>::_Vector_impl_data" }
%"struct.std::_Vector_base<open_spiel::battleship::GameMove, std::allocator<open_spiel::battleship::GameMove>>::_Vector_impl_data" = type { ptr, ptr, ptr }
%"class.__gnu_cxx::__normal_iterator" = type { ptr }
%"struct.open_spiel::battleship::Ship" = type { i32, i32, double }
%"class.open_spiel::battleship::ShipPlacement" = type { %"class.open_spiel::battleship::CellAndDirection", %"struct.open_spiel::battleship::Ship" }
%"class.open_spiel::battleship::CellAndDirection" = type { i32, %"struct.open_spiel::battleship::Cell" }
%"struct.open_spiel::battleship::Cell" = type { i32, i32 }
%"struct.open_spiel::battleship::GameMove" = type { i32, %"class.absl::debian2::variant" }
%"class.absl::debian2::variant" = type { %"class.absl::debian2::variant_internal::VariantStateBase" }
%"class.absl::debian2::variant_internal::VariantStateBase" = type { %"union.absl::debian2::variant_internal::Union", i64 }
%"union.absl::debian2::variant_internal::Union" = type { %"class.open_spiel::battleship::ShipPlacement" }
%"class.std::allocator.8" = type { i8 }

@.str.45 = private unnamed_addr constant [12 x i8] c"Unreachable\00", align 1

; Function Attrs: mustprogress nounwind uwtable
define linkonce_odr noundef nonnull align 8 dereferenceable(32) ptr @_ZN4absl7debian216variant_internal11AccessUnionIRKNS1_5UnionIJN10open_spiel10battleship13ShipPlacementENS5_4CellEEEELm0EEENS1_23VariantAccessResultImplIXT0_EOT_E4typeESD_St17integral_constantImXT0_EE(ptr noundef nonnull align 8 dereferenceable(32) %0) #5 comdat {
  %2 = alloca ptr, align 8
  store ptr %0, ptr %2, align 8
  %3 = load ptr, ptr %2, align 8
  ret ptr %3
}

; Function Attrs: mustprogress uwtable
define linkonce_odr noundef nonnull align 8 dereferenceable(32) ptr @_ZN4absl7debian216variant_internal17VariantCoreAccess6AccessILm0ERKNS0_7variantIJN10open_spiel10battleship13ShipPlacementENS6_4CellEEEEEENS1_23VariantAccessResultImplIXT_EOT0_E4typeESE_(ptr noundef nonnull align 8 dereferenceable(40) %0) #4 comdat align 2 {
  %2 = alloca ptr, align 8
  store ptr %0, ptr %2, align 8
  %3 = load ptr, ptr %2, align 8
  %4 = getelementptr inbounds nuw %"class.absl::debian2::variant_internal::VariantStateBase", ptr %3, i32 0, i32 0
  %5 = call noundef nonnull align 8 dereferenceable(32) ptr @_ZN4absl7debian216variant_internal11AccessUnionIRKNS1_5UnionIJN10open_spiel10battleship13ShipPlacementENS5_4CellEEEELm0EEENS1_23VariantAccessResultImplIXT0_EOT_E4typeESD_St17integral_constantImXT0_EE(ptr noundef nonnull align 8 dereferenceable(32) %4)
  ret ptr %5
}

; Function Attrs: mustprogress nounwind uwtable
define linkonce_odr noundef nonnull align 8 dereferenceable(40) ptr @_ZN4absl7debian27forwardIRKNS0_7variantIJN10open_spiel10battleship13ShipPlacementENS4_4CellEEEEEEOT_RNSt16remove_referenceISA_E4typeE(ptr noundef nonnull align 8 dereferenceable(40) %0) #5 comdat {
  %2 = alloca ptr, align 8
  store ptr %0, ptr %2, align 8
  %3 = load ptr, ptr %2, align 8
  ret ptr %3
}

; Function Attrs: mustprogress noreturn uwtable
define linkonce_odr noundef nonnull align 8 dereferenceable(32) ptr @_ZN4absl7debian216variant_internal26TypedThrowBadVariantAccessIRKN10open_spiel10battleship13ShipPlacementEEET_v() #12 comdat {
  call void @_ZN4absl7debian216variant_internal21ThrowBadVariantAccessEv() #19
  unreachable
}

; Function Attrs: mustprogress uwtable
define linkonce_odr noundef nonnull align 8 dereferenceable(32) ptr @_ZN4absl7debian216variant_internal17VariantCoreAccess13CheckedAccessILm0ERKNS0_7variantIJN10open_spiel10battleship13ShipPlacementENS6_4CellEEEEEENS1_23VariantAccessResultImplIXT_EOT0_E4typeESE_(ptr noundef nonnull align 8 dereferenceable(40) %0) #4 comdat align 2 {
  %2 = alloca ptr, align 8
  store ptr %0, ptr %2, align 8
  %3 = load ptr, ptr %2, align 8
  %4 = getelementptr inbounds nuw %"class.absl::debian2::variant_internal::VariantStateBase", ptr %3, i32 0, i32 1
  %5 = load i64, ptr %4, align 8
  %6 = icmp ne i64 %5, 0
  br i1 %6, label %7, label %9

7:                                                ; preds = %1
  %8 = call noundef nonnull align 8 dereferenceable(32) ptr @_ZN4absl7debian216variant_internal26TypedThrowBadVariantAccessIRKN10open_spiel10battleship13ShipPlacementEEET_v() #19
  unreachable

9:                                                ; preds = %1
  %10 = load ptr, ptr %2, align 8
  %11 = call noundef nonnull align 8 dereferenceable(40) ptr @_ZN4absl7debian27forwardIRKNS0_7variantIJN10open_spiel10battleship13ShipPlacementENS4_4CellEEEEEEOT_RNSt16remove_referenceISA_E4typeE(ptr noundef nonnull align 8 dereferenceable(40) %10) #3
  %12 = call noundef nonnull align 8 dereferenceable(32) ptr @_ZN4absl7debian216variant_internal17VariantCoreAccess6AccessILm0ERKNS0_7variantIJN10open_spiel10battleship13ShipPlacementENS6_4CellEEEEEENS1_23VariantAccessResultImplIXT_EOT0_E4typeESE_(ptr noundef nonnull align 8 dereferenceable(40) %11)
  ret ptr %12
}

; Function Attrs: mustprogress nounwind uwtable
define linkonce_odr noundef i64 @_ZNK4absl7debian27variantIJN10open_spiel10battleship13ShipPlacementENS3_4CellEEE5indexEv(ptr noundef nonnull align 8 dereferenceable(40) %0) #5 comdat align 2 {
  %2 = alloca ptr, align 8
  store ptr %0, ptr %2, align 8
  %3 = load ptr, ptr %2, align 8
  %4 = getelementptr inbounds nuw %"class.absl::debian2::variant_internal::VariantStateBase", ptr %3, i32 0, i32 1
  %5 = load i64, ptr %4, align 8
  ret i64 %5
}

; Function Attrs: mustprogress nounwind uwtable
define linkonce_odr noundef nonnull align 8 dereferenceable(8) ptr @_ZNK9__gnu_cxx17__normal_iteratorIPKN10open_spiel10battleship8GameMoveESt6vectorIS3_SaIS3_EEE4baseEv(ptr noundef nonnull align 8 dereferenceable(8) %0) #5 comdat align 2 {
  %2 = alloca ptr, align 8
  store ptr %0, ptr %2, align 8
  %3 = load ptr, ptr %2, align 8
  %4 = getelementptr inbounds nuw %"class.__gnu_cxx::__normal_iterator", ptr %3, i32 0, i32 0
  ret ptr %4
}

; Function Attrs: mustprogress nounwind uwtable
define linkonce_odr void @_ZN9__gnu_cxx17__normal_iteratorIPKN10open_spiel10battleship8GameMoveESt6vectorIS3_SaIS3_EEEC2ERKS5_(ptr noundef nonnull align 8 dereferenceable(8) %0, ptr noundef nonnull align 8 dereferenceable(8) %1) unnamed_addr #5 comdat align 2 {
  %3 = alloca ptr, align 8
  %4 = alloca ptr, align 8
  store ptr %0, ptr %3, align 8
  store ptr %1, ptr %4, align 8
  %5 = load ptr, ptr %3, align 8
  %6 = getelementptr inbounds nuw %"class.__gnu_cxx::__normal_iterator", ptr %5, i32 0, i32 0
  %7 = load ptr, ptr %4, align 8
  %8 = load ptr, ptr %7, align 8
  store ptr %8, ptr %6, align 8
  ret void
}

; Function Attrs: mustprogress nounwind uwtable
define linkonce_odr noundef nonnull align 8 dereferenceable(8) ptr @_ZN9__gnu_cxx17__normal_iteratorIPKN10open_spiel10battleship8GameMoveESt6vectorIS3_SaIS3_EEEppEv(ptr noundef nonnull align 8 dereferenceable(8) %0) #5 comdat align 2 {
  %2 = alloca ptr, align 8
  store ptr %0, ptr %2, align 8
  %3 = load ptr, ptr %2, align 8
  %4 = getelementptr inbounds nuw %"class.__gnu_cxx::__normal_iterator", ptr %3, i32 0, i32 0
  %5 = load ptr, ptr %4, align 8
  %6 = getelementptr inbounds %"struct.open_spiel::battleship::GameMove", ptr %5, i32 1
  store ptr %6, ptr %4, align 8
  ret ptr %3
}

; Function Attrs: mustprogress uwtable
define linkonce_odr noundef nonnull align 8 dereferenceable(32) ptr @_ZN4absl7debian23getIN10open_spiel10battleship13ShipPlacementEJS4_NS3_4CellEEEERKT_RKNS0_7variantIJDpT0_EEE(ptr noundef nonnull align 8 dereferenceable(40) %0) #4 comdat {
  %2 = alloca ptr, align 8
  store ptr %0, ptr %2, align 8
  %3 = load ptr, ptr %2, align 8
  %4 = call noundef nonnull align 8 dereferenceable(32) ptr @_ZN4absl7debian216variant_internal17VariantCoreAccess13CheckedAccessILm0ERKNS0_7variantIJN10open_spiel10battleship13ShipPlacementENS6_4CellEEEEEENS1_23VariantAccessResultImplIXT_EOT0_E4typeESE_(ptr noundef nonnull align 8 dereferenceable(40) %3)
  ret ptr %4
}

; Function Attrs: mustprogress nounwind uwtable
define linkonce_odr noundef zeroext i1 @_ZN4absl7debian217holds_alternativeIN10open_spiel10battleship13ShipPlacementEJS4_NS3_4CellEEEEbRKNS0_7variantIJDpT0_EEE(ptr noundef nonnull align 8 dereferenceable(40) %0) #5 comdat {
  %2 = alloca ptr, align 8
  store ptr %0, ptr %2, align 8
  %3 = load ptr, ptr %2, align 8
  %4 = call noundef i64 @_ZNK4absl7debian27variantIJN10open_spiel10battleship13ShipPlacementENS3_4CellEEE5indexEv(ptr noundef nonnull align 8 dereferenceable(40) %3) #3
  %5 = icmp eq i64 %4, 0
  ret i1 %5
}

; Function Attrs: mustprogress nounwind uwtable
define linkonce_odr noundef nonnull align 8 dereferenceable(48) ptr @_ZNK9__gnu_cxx17__normal_iteratorIPKN10open_spiel10battleship8GameMoveESt6vectorIS3_SaIS3_EEEdeEv(ptr noundef nonnull align 8 dereferenceable(8) %0) #5 comdat align 2 {
  %2 = alloca ptr, align 8
  store ptr %0, ptr %2, align 8
  %3 = load ptr, ptr %2, align 8
  %4 = getelementptr inbounds nuw %"class.__gnu_cxx::__normal_iterator", ptr %3, i32 0, i32 0
  %5 = load ptr, ptr %4, align 8
  ret ptr %5
}

; Function Attrs: mustprogress nounwind uwtable
define linkonce_odr noundef zeroext i1 @_ZN9__gnu_cxxneIPKN10open_spiel10battleship8GameMoveESt6vectorIS3_SaIS3_EEEEbRKNS_17__normal_iteratorIT_T0_EESE_(ptr noundef nonnull align 8 dereferenceable(8) %0, ptr noundef nonnull align 8 dereferenceable(8) %1) #5 comdat {
  %3 = alloca ptr, align 8
  %4 = alloca ptr, align 8
  store ptr %0, ptr %3, align 8
  store ptr %1, ptr %4, align 8
  %5 = load ptr, ptr %3, align 8
  %6 = call noundef nonnull align 8 dereferenceable(8) ptr @_ZNK9__gnu_cxx17__normal_iteratorIPKN10open_spiel10battleship8GameMoveESt6vectorIS3_SaIS3_EEE4baseEv(ptr noundef nonnull align 8 dereferenceable(8) %5) #3
  %7 = load ptr, ptr %6, align 8
  %8 = load ptr, ptr %4, align 8
  %9 = call noundef nonnull align 8 dereferenceable(8) ptr @_ZNK9__gnu_cxx17__normal_iteratorIPKN10open_spiel10battleship8GameMoveESt6vectorIS3_SaIS3_EEE4baseEv(ptr noundef nonnull align 8 dereferenceable(8) %8) #3
  %10 = load ptr, ptr %9, align 8
  %11 = icmp ne ptr %7, %10
  ret i1 %11
}

; Function Attrs: mustprogress nounwind uwtable
define linkonce_odr ptr @_ZNKSt6vectorIN10open_spiel10battleship8GameMoveESaIS2_EE3endEv(ptr noundef nonnull align 8 dereferenceable(24) %0) #5 comdat align 2 {
  %2 = alloca %"class.__gnu_cxx::__normal_iterator", align 8
  %3 = alloca ptr, align 8
  store ptr %0, ptr %3, align 8
  %4 = load ptr, ptr %3, align 8
  %5 = getelementptr inbounds nuw %"struct.std::_Vector_base.4", ptr %4, i32 0, i32 0
  %6 = getelementptr inbounds nuw %"struct.std::_Vector_base<open_spiel::battleship::GameMove, std::allocator<open_spiel::battleship::GameMove>>::_Vector_impl_data", ptr %5, i32 0, i32 1
  call void @_ZN9__gnu_cxx17__normal_iteratorIPKN10open_spiel10battleship8GameMoveESt6vectorIS3_SaIS3_EEEC2ERKS5_(ptr noundef nonnull align 8 dereferenceable(8) %2, ptr noundef nonnull align 8 dereferenceable(8) %6) #3
  %7 = getelementptr inbounds nuw %"class.__gnu_cxx::__normal_iterator", ptr %2, i32 0, i32 0
  %8 = load ptr, ptr %7, align 8
  ret ptr %8
}

; Function Attrs: mustprogress nounwind uwtable
define linkonce_odr ptr @_ZNKSt6vectorIN10open_spiel10battleship8GameMoveESaIS2_EE5beginEv(ptr noundef nonnull align 8 dereferenceable(24) %0) #5 comdat align 2 {
  %2 = alloca %"class.__gnu_cxx::__normal_iterator", align 8
  %3 = alloca ptr, align 8
  store ptr %0, ptr %3, align 8
  %4 = load ptr, ptr %3, align 8
  %5 = getelementptr inbounds nuw %"struct.std::_Vector_base.4", ptr %4, i32 0, i32 0
  %6 = getelementptr inbounds nuw %"struct.std::_Vector_base<open_spiel::battleship::GameMove, std::allocator<open_spiel::battleship::GameMove>>::_Vector_impl_data", ptr %5, i32 0, i32 0
  call void @_ZN9__gnu_cxx17__normal_iteratorIPKN10open_spiel10battleship8GameMoveESt6vectorIS3_SaIS3_EEEC2ERKS5_(ptr noundef nonnull align 8 dereferenceable(8) %2, ptr noundef nonnull align 8 dereferenceable(8) %6) #3
  %7 = getelementptr inbounds nuw %"class.__gnu_cxx::__normal_iterator", ptr %2, i32 0, i32 0
  %8 = load ptr, ptr %7, align 8
  ret ptr %8
}

; Function Attrs: mustprogress uwtable
define void @_ZNK10open_spiel10battleship15BattleshipState17FindShipPlacementERKNS0_4ShipEi(ptr dead_on_unwind noalias writable sret(%"class.open_spiel::battleship::ShipPlacement") align 8 %0, ptr noundef nonnull align 8 dereferenceable(104) %1, ptr noundef nonnull align 8 dereferenceable(16) %2, i32 noundef %3) #4 align 2 personality ptr @__gxx_personality_v0 {
  %5 = alloca ptr, align 8
  %6 = alloca ptr, align 8
  %7 = alloca i32, align 4
  %8 = alloca ptr, align 8
  %9 = alloca %"class.__gnu_cxx::__normal_iterator", align 8
  %10 = alloca %"class.__gnu_cxx::__normal_iterator", align 8
  %11 = alloca ptr, align 8
  %12 = alloca ptr, align 8
  %13 = alloca %"class.std::__cxx11::basic_string", align 8
  %14 = alloca %"class.std::allocator.8", align 1
  %15 = alloca ptr, align 8
  %16 = alloca i32, align 4
  store ptr %1, ptr %5, align 8
  store ptr %2, ptr %6, align 8
  store i32 %3, ptr %7, align 4
  %17 = load ptr, ptr %5, align 8
  %18 = getelementptr inbounds nuw %"class.open_spiel::battleship::BattleshipState", ptr %17, i32 0, i32 2
  store ptr %18, ptr %8, align 8
  %19 = load ptr, ptr %8, align 8
  %20 = call ptr @_ZNKSt6vectorIN10open_spiel10battleship8GameMoveESaIS2_EE5beginEv(ptr noundef nonnull align 8 dereferenceable(24) %19) #3
  %21 = getelementptr inbounds nuw %"class.__gnu_cxx::__normal_iterator", ptr %9, i32 0, i32 0
  store ptr %20, ptr %21, align 8
  %22 = load ptr, ptr %8, align 8
  %23 = call ptr @_ZNKSt6vectorIN10open_spiel10battleship8GameMoveESaIS2_EE3endEv(ptr noundef nonnull align 8 dereferenceable(24) %22) #3
  %24 = getelementptr inbounds nuw %"class.__gnu_cxx::__normal_iterator", ptr %10, i32 0, i32 0
  store ptr %23, ptr %24, align 8
  br label %25

25:                                               ; preds = %54, %4
  %26 = call noundef zeroext i1 @_ZN9__gnu_cxxneIPKN10open_spiel10battleship8GameMoveESt6vectorIS3_SaIS3_EEEEbRKNS_17__normal_iteratorIT_T0_EESE_(ptr noundef nonnull align 8 dereferenceable(8) %9, ptr noundef nonnull align 8 dereferenceable(8) %10) #3
  br i1 %26, label %27, label %56

27:                                               ; preds = %25
  %28 = call noundef nonnull align 8 dereferenceable(48) ptr @_ZNK9__gnu_cxx17__normal_iteratorIPKN10open_spiel10battleship8GameMoveESt6vectorIS3_SaIS3_EEEdeEv(ptr noundef nonnull align 8 dereferenceable(8) %9) #3
  store ptr %28, ptr %11, align 8
  %29 = load ptr, ptr %11, align 8
  %30 = getelementptr inbounds nuw %"struct.open_spiel::battleship::GameMove", ptr %29, i32 0, i32 0
  %31 = load i32, ptr %30, align 8
  %32 = load i32, ptr %7, align 4
  %33 = icmp eq i32 %31, %32
  br i1 %33, label %34, label %53

34:                                               ; preds = %27
  %35 = load ptr, ptr %11, align 8
  %36 = getelementptr inbounds nuw %"struct.open_spiel::battleship::GameMove", ptr %35, i32 0, i32 1
  %37 = call noundef zeroext i1 @_ZN4absl7debian217holds_alternativeIN10open_spiel10battleship13ShipPlacementEJS4_NS3_4CellEEEEbRKNS0_7variantIJDpT0_EEE(ptr noundef nonnull align 8 dereferenceable(40) %36) #3
  br i1 %37, label %38, label %53

38:                                               ; preds = %34
  %39 = load ptr, ptr %11, align 8
  %40 = getelementptr inbounds nuw %"struct.open_spiel::battleship::GameMove", ptr %39, i32 0, i32 1
  %41 = call noundef nonnull align 8 dereferenceable(32) ptr @_ZN4absl7debian23getIN10open_spiel10battleship13ShipPlacementEJS4_NS3_4CellEEEERKT_RKNS0_7variantIJDpT0_EEE(ptr noundef nonnull align 8 dereferenceable(40) %40)
  store ptr %41, ptr %12, align 8
  %42 = load ptr, ptr %12, align 8
  %43 = getelementptr inbounds nuw %"class.open_spiel::battleship::ShipPlacement", ptr %42, i32 0, i32 1
  %44 = getelementptr inbounds nuw %"struct.open_spiel::battleship::Ship", ptr %43, i32 0, i32 0
  %45 = load i32, ptr %44, align 8
  %46 = load ptr, ptr %6, align 8
  %47 = getelementptr inbounds nuw %"struct.open_spiel::battleship::Ship", ptr %46, i32 0, i32 0
  %48 = load i32, ptr %47, align 8
  %49 = icmp eq i32 %45, %48
  br i1 %49, label %50, label %52

50:                                               ; preds = %38
  %51 = load ptr, ptr %12, align 8
  call void @llvm.memcpy.p0.p0.i64(ptr align 8 %0, ptr align 8 %51, i64 32, i1 false)
  ret void

52:                                               ; preds = %38
  br label %53

53:                                               ; preds = %52, %34, %27
  br label %54

54:                                               ; preds = %53
  %55 = call noundef nonnull align 8 dereferenceable(8) ptr @_ZN9__gnu_cxx17__normal_iteratorIPKN10open_spiel10battleship8GameMoveESt6vectorIS3_SaIS3_EEEppEv(ptr noundef nonnull align 8 dereferenceable(8) %9) #3
  br label %25

56:                                               ; preds = %25
  call void @_ZNSaIcEC1Ev(ptr noundef nonnull align 1 dereferenceable(1) %14) #3
  invoke void @_ZNSt7__cxx1112basic_stringIcSt11char_traitsIcESaIcEEC2IS3_EEPKcRKS3_(ptr noundef nonnull align 8 dereferenceable(32) %13, ptr noundef @.str.45, ptr noundef nonnull align 1 dereferenceable(1) %14)
          to label %57 unwind label %59

57:                                               ; preds = %56
  invoke void @_ZN10open_spiel15SpielFatalErrorERKNSt7__cxx1112basic_stringIcSt11char_traitsIcESaIcEEE(ptr noundef nonnull align 8 dereferenceable(32) %13) #19
          to label %58 unwind label %63

58:                                               ; preds = %57
  unreachable

59:                                               ; preds = %56
  %60 = landingpad { ptr, i32 }
          cleanup
  %61 = extractvalue { ptr, i32 } %60, 0
  store ptr %61, ptr %15, align 8
  %62 = extractvalue { ptr, i32 } %60, 1
  store i32 %62, ptr %16, align 4
  br label %67

63:                                               ; preds = %57
  %64 = landingpad { ptr, i32 }
          cleanup
  %65 = extractvalue { ptr, i32 } %64, 0
  store ptr %65, ptr %15, align 8
  %66 = extractvalue { ptr, i32 } %64, 1
  store i32 %66, ptr %16, align 4
  call void @_ZNSt7__cxx1112basic_stringIcSt11char_traitsIcESaIcEED1Ev(ptr noundef nonnull align 8 dereferenceable(32) %13) #3
  br label %67

67:                                               ; preds = %63, %59
  call void @_ZNSaIcED1Ev(ptr noundef nonnull align 1 dereferenceable(1) %14) #3
  br label %68

68:                                               ; preds = %67
  %69 = load ptr, ptr %15, align 8
  %70 = load i32, ptr %16, align 4
  %71 = insertvalue { ptr, i32 } poison, ptr %69, 0
  %72 = insertvalue { ptr, i32 } %71, i32 %70, 1
  resume { ptr, i32 } %72
}