; Function Attrs: mustprogress uwtable
define void @_ZNK10open_spiel10battleship15BattleshipState17FindShipPlacementERKNS0_4ShipEi(ptr dead_on_unwind noalias writable writeonly sret(%"class.open_spiel::battleship::ShipPlacement") align 8 captures(none) %0, ptr noundef nonnull readonly align 8 captures(none) dereferenceable(104) %1, ptr noundef nonnull readonly align 8 captures(none) dereferenceable(16) %2, i32 noundef %3) local_unnamed_addr #3 align 2 personality ptr @__gxx_personality_v0 {
  %5 = alloca %"class.std::__cxx11::basic_string", align 8
  %6 = alloca %"class.std::allocator.8", align 1
  %7 = getelementptr inbounds nuw i8, ptr %1, i64 80
  %8 = load ptr, ptr %7, align 8
  %9 = getelementptr inbounds nuw i8, ptr %1, i64 88
  %10 = load ptr, ptr %9, align 8
  %.not17 = icmp eq ptr %8, %10
  br i1 %.not17, label %._crit_edge, label %.lr.ph

.lr.ph:                                           ; preds = %4
  %11 = load i32, ptr %2, align 8
  br label %12

12:                                               ; preds = %.lr.ph, %24
  %.sroa.013.018 = phi ptr [ %8, %.lr.ph ], [ %25, %24 ]
  %13 = load i32, ptr %.sroa.013.018, align 8
  %14 = icmp eq i32 %13, %3
  br i1 %14, label %15, label %24

15:                                               ; preds = %12
  %16 = getelementptr inbounds nuw i8, ptr %.sroa.013.018, i64 40
  %17 = load i64, ptr %16, align 8
  %18 = icmp eq i64 %17, 0
  br i1 %18, label %_ZN4absl7debian23getIN10open_spiel10battleship13ShipPlacementEJS4_NS3_4CellEEEERKT_RKNS0_7variantIJDpT0_EEE.exit, label %24

_ZN4absl7debian23getIN10open_spiel10battleship13ShipPlacementEJS4_NS3_4CellEEEERKT_RKNS0_7variantIJDpT0_EEE.exit: ; preds = %15
  %19 = getelementptr inbounds nuw i8, ptr %.sroa.013.018, i64 24
  %20 = load i32, ptr %19, align 8
  %21 = icmp eq i32 %20, %11
  br i1 %21, label %22, label %24

22:                                               ; preds = %_ZN4absl7debian23getIN10open_spiel10battleship13ShipPlacementEJS4_NS3_4CellEEEERKT_RKNS0_7variantIJDpT0_EEE.exit
  %23 = getelementptr inbounds nuw i8, ptr %.sroa.013.018, i64 8
  tail call void @llvm.memcpy.p0.p0.i64(ptr noundef nonnull align 8 dereferenceable(32) %0, ptr noundef nonnull align 8 dereferenceable(32) %23, i64 32, i1 false)
  ret void

24:                                               ; preds = %12, %15, %_ZN4absl7debian23getIN10open_spiel10battleship13ShipPlacementEJS4_NS3_4CellEEEERKT_RKNS0_7variantIJDpT0_EEE.exit
  %25 = getelementptr inbounds nuw i8, ptr %.sroa.013.018, i64 48
  %.not = icmp eq ptr %25, %10
  br i1 %.not, label %._crit_edge, label %12

._crit_edge:                                      ; preds = %24, %4
  call void @_ZNSaIcEC1Ev(ptr noundef nonnull align 1 dereferenceable(1) %6) #27
  invoke void @_ZNSt7__cxx1112basic_stringIcSt11char_traitsIcESaIcEEC2IS3_EEPKcRKS3_(ptr noundef nonnull align 8 dereferenceable(32) %5, ptr noundef nonnull @.str.45, ptr noundef nonnull align 1 dereferenceable(1) %6)
          to label %26 unwind label %28

26:                                               ; preds = %._crit_edge
  invoke void @_ZN10open_spiel15SpielFatalErrorERKNSt7__cxx1112basic_stringIcSt11char_traitsIcESaIcEEE(ptr noundef nonnull align 8 dereferenceable(32) %5) #28
          to label %27 unwind label %30

27:                                               ; preds = %26
  unreachable

28:                                               ; preds = %._crit_edge
  %29 = landingpad { ptr, i32 }
          cleanup
  br label %32

30:                                               ; preds = %26
  %31 = landingpad { ptr, i32 }
          cleanup
  call void @_ZNSt7__cxx1112basic_stringIcSt11char_traitsIcESaIcEED1Ev(ptr noundef nonnull align 8 dereferenceable(32) %5) #27
  br label %32

32:                                               ; preds = %30, %28
  %.pn = phi { ptr, i32 } [ %31, %30 ], [ %29, %28 ]
  call void @_ZNSaIcED1Ev(ptr noundef nonnull align 1 dereferenceable(1) %6) #27
  resume { ptr, i32 } %.pn
}